; Function Attrs: nounwind uwtable
define i32 @wc_HKDF_Extract_ex(i32 noundef %type, ptr noundef %salt, i32 noundef %saltSz, ptr noundef %inKey, i32 noundef %inKeySz, ptr noundef %out, ptr noundef %heap, i32 noundef %devId) local_unnamed_addr #1 {
entry:
  %tmp = alloca [64 x i8], align 16
  %myHmac = alloca [1 x %struct.Hmac], align 16
  %switch.tableidx = add i32 %type, -3
  %0 = icmp ult i32 %switch.tableidx, 11
  br i1 %0, label %switch.hole_check, label %return

switch.hole_check:                                ; preds = %entry
  %switch.maskindex = trunc nuw i32 %switch.tableidx to i16
  %switch.shifted = lshr i16 1983, %switch.maskindex
  %switch.lobit = trunc i16 %switch.shifted to i1
  br i1 %switch.lobit, label %switch.lookup, label %return

switch.lookup:                                    ; preds = %switch.hole_check
  %cmp1 = icmp eq ptr %salt, null
  br i1 %cmp1, label %if.then2, label %if.then9

if.then2:                                         ; preds = %switch.lookup
  %1 = zext nneg i32 %switch.tableidx to i64
  %switch.gep = getelementptr inbounds nuw [11 x i32], ptr @switch.table.wc_HKDF_Expand_ex, i64 0, i64 %1
  %switch.load = load i32, ptr %switch.gep, align 4
  %conv = zext nneg i32 %switch.load to i64
  call void @llvm.memset.p0.i64(ptr noundef nonnull align 16 dereferenceable(1) %tmp, i8 0, i64 %conv, i1 false)
  br label %if.then9

if.then9:                                         ; preds = %switch.lookup, %if.then2
  %saltSz.addr.0 = phi i32 [ %switch.load, %if.then2 ], [ %saltSz, %switch.lookup ]
  %localSalt.0 = phi ptr [ %tmp, %if.then2 ], [ %salt, %switch.lookup ]
  %heap1.i = getelementptr inbounds nuw i8, ptr %myHmac, i64 768
  call void @llvm.memset.p0.i64(ptr noundef nonnull align 16 dereferenceable(784) %myHmac, i8 0, i64 784, i1 false)
  store ptr %heap, ptr %heap1.i, align 16
  %call11 = call i32 @wc_HmacSetKey(ptr noundef nonnull %myHmac, i32 noundef %type, ptr noundef nonnull %localSalt.0, i32 noundef %saltSz.addr.0)
  %cmp12 = icmp eq i32 %call11, 0
  br i1 %cmp12, label %if.end17, label %if.end23

if.end17:                                         ; preds = %if.then9
  %call16 = call i32 @wc_HmacUpdate(ptr noundef nonnull %myHmac, ptr noundef %inKey, i32 noundef %inKeySz)
  %cmp18 = icmp eq i32 %call16, 0
  br i1 %cmp18, label %if.then20, label %if.end23

if.then20:                                        ; preds = %if.end17
  %call22 = call i32 @wc_HmacFinal(ptr noundef nonnull %myHmac, ptr noundef %out)
  br label %if.end23

if.end23:                                         ; preds = %if.then9, %if.then20, %if.end17
  %ret.2 = phi i32 [ %call22, %if.then20 ], [ %call16, %if.end17 ], [ %call11, %if.then9 ]
  call void @wc_HmacFree(ptr noundef nonnull %myHmac)
  br label %return

return:                                           ; preds = %switch.hole_check, %entry, %if.end23
  %retval.0 = phi i32 [ %ret.2, %if.end23 ], [ -173, %entry ], [ -173, %switch.hole_check ]
  ret i32 %retval.0
}